; Function Attrs: nounwind uwtable
define internal void @sapi_cli_ini_defaults(ptr noundef %0) #1 {
  %2 = alloca %struct._zval_struct, align 8
  %3 = tail call noalias dereferenceable_or_null(32) ptr @__zend_malloc(i64 noundef 32) #28
  store i32 1, ptr %3, align 4
  %4 = getelementptr inbounds i8, ptr %3, i64 4
  store i32 150, ptr %4, align 4
  %5 = getelementptr inbounds i8, ptr %3, i64 8
  store i64 0, ptr %5, align 8
  %6 = getelementptr inbounds i8, ptr %3, i64 16
  store i64 1, ptr %6, align 8
  %7 = getelementptr inbounds i8, ptr %3, i64 24
  store i8 49, ptr %7, align 8
  %8 = getelementptr inbounds i8, ptr %3, i64 25
  store i8 0, ptr %8, align 1
  store ptr %3, ptr %2, align 8
  %9 = getelementptr inbounds i8, ptr %2, i64 8
  store i32 262, ptr %9, align 8
  %10 = call ptr @zend_hash_str_update(ptr noundef %0, ptr noundef nonnull @.str.55, i64 noundef 14, ptr noundef nonnull %2) #23
  ret void
}